; Function Attrs: mustprogress uwtable
define void @_ZN2cv7GScalarC2ERKNS_7Scalar_IdEE(ptr noundef nonnull writeonly align 8 captures(none) dereferenceable(16) %0, ptr noundef nonnull readonly align 8 captures(none) dereferenceable(32) %1) unnamed_addr #3 align 2 personality ptr @__gxx_personality_v0 {
_ZN2cv4util7variantIJNS0_9monostateENS_7Scalar_IdEENS_6detail9VectorRefENS_3MatEEEC2IRKS4_vEEOT_.exit:
  %2 = alloca %"class.cv::util::variant", align 8
  %3 = tail call noalias noundef nonnull dereferenceable(184) ptr @_Znwm(i64 noundef 184) #17
  store i64 1, ptr %2, align 8, !tbaa !27
  %4 = getelementptr inbounds nuw i8, ptr %2, i64 8
  call void @llvm.memcpy.p0.p0.i64(ptr noundef nonnull align 8 dereferenceable(32) %4, ptr noundef nonnull align 8 dereferenceable(32) %1, i64 32, i1 false), !tbaa !29
  invoke void @_ZN2cv7GOriginC1ENS_6GShapeENS_4util7variantIJNS2_9monostateENS_7Scalar_IdEENS_6detail9VectorRefENS_3MatEEEE(ptr noundef nonnull align 8 dereferenceable(180) %3, i32 noundef 1, ptr noundef nonnull %2)
          to label %5 unwind label %28

5:                                                ; preds = %_ZN2cv4util7variantIJNS0_9monostateENS_7Scalar_IdEENS_6detail9VectorRefENS_3MatEEEC2IRKS4_vEEOT_.exit
  store ptr %3, ptr %0, align 8, !tbaa !8
  %6 = getelementptr inbounds nuw i8, ptr %0, i64 8
  store ptr null, ptr %6, align 8, !tbaa !14
  %7 = invoke noalias noundef nonnull dereferenceable(24) ptr @_Znwm(i64 noundef 24) #17
          to label %18 unwind label %8

8:                                                ; preds = %5
  %9 = landingpad { ptr, i32 }
          catch ptr null
  %10 = extractvalue { ptr, i32 } %9, 0
  %11 = call ptr @__cxa_begin_catch(ptr %10) #18
  call void @_ZN2cv7GOriginD2Ev(ptr noundef nonnull align 8 dereferenceable(180) %3) #18
  call void @_ZdlPv(ptr noundef nonnull %3) #19
  invoke void @__cxa_rethrow() #20
          to label %17 unwind label %12

12:                                               ; preds = %8
  %13 = landingpad { ptr, i32 }
          cleanup
  invoke void @__cxa_end_catch()
          to label %.body unwind label %14

14:                                               ; preds = %12
  %15 = landingpad { ptr, i32 }
          catch ptr null
  %16 = extractvalue { ptr, i32 } %15, 0
  call void @__clang_call_terminate(ptr %16) #21
  unreachable

17:                                               ; preds = %8
  unreachable

18:                                               ; preds = %5
  %19 = getelementptr inbounds nuw i8, ptr %7, i64 8
  store i32 1, ptr %19, align 8, !tbaa !15
  %20 = getelementptr inbounds nuw i8, ptr %7, i64 12
  store i32 1, ptr %20, align 4, !tbaa !18
  store ptr getelementptr inbounds nuw inrange(-16, 40) (i8, ptr @_ZTVSt15_Sp_counted_ptrIPN2cv7GOriginELN9__gnu_cxx12_Lock_policyE2EE, i64 16), ptr %7, align 8, !tbaa !19
  %21 = getelementptr inbounds nuw i8, ptr %7, i64 16
  store ptr %3, ptr %21, align 8, !tbaa !21
  store ptr %7, ptr %6, align 8, !tbaa !14
  %22 = load i64, ptr %2, align 8, !tbaa !27
  %23 = getelementptr inbounds nuw [4 x ptr], ptr @constinit.2, i64 0, i64 %22
  %24 = load ptr, ptr %23, align 8, !tbaa !23
  invoke void %24(ptr noundef nonnull %4)
          to label %_ZN2cv4util7variantIJNS0_9monostateENS_7Scalar_IdEENS_6detail9VectorRefENS_3MatEEED2Ev.exit unwind label %25

25:                                               ; preds = %18
  %26 = landingpad { ptr, i32 }
          catch ptr null
  %27 = extractvalue { ptr, i32 } %26, 0
  call void @__clang_call_terminate(ptr %27) #21
  unreachable

_ZN2cv4util7variantIJNS0_9monostateENS_7Scalar_IdEENS_6detail9VectorRefENS_3MatEEED2Ev.exit: ; preds = %18
  ret void

28:                                               ; preds = %_ZN2cv4util7variantIJNS0_9monostateENS_7Scalar_IdEENS_6detail9VectorRefENS_3MatEEEC2IRKS4_vEEOT_.exit
  %29 = landingpad { ptr, i32 }
          cleanup
  br label %.body

.body:                                            ; preds = %12, %28
  %.0.lpad-body = phi i1 [ true, %28 ], [ false, %12 ]
  %eh.lpad-body = phi { ptr, i32 } [ %29, %28 ], [ %13, %12 ]
  %30 = load i64, ptr %2, align 8, !tbaa !27
  %31 = getelementptr inbounds nuw [4 x ptr], ptr @constinit.2, i64 0, i64 %30
  %32 = load ptr, ptr %31, align 8, !tbaa !23
  invoke void %32(ptr noundef nonnull %4)
          to label %_ZN2cv4util7variantIJNS0_9monostateENS_7Scalar_IdEENS_6detail9VectorRefENS_3MatEEED2Ev.exit7 unwind label %33

33:                                               ; preds = %.body
  %34 = landingpad { ptr, i32 }
          catch ptr null
  %35 = extractvalue { ptr, i32 } %34, 0
  call void @__clang_call_terminate(ptr %35) #21
  unreachable

_ZN2cv4util7variantIJNS0_9monostateENS_7Scalar_IdEENS_6detail9VectorRefENS_3MatEEED2Ev.exit7: ; preds = %.body
  br i1 %.0.lpad-body, label %36, label %37

36:                                               ; preds = %_ZN2cv4util7variantIJNS0_9monostateENS_7Scalar_IdEENS_6detail9VectorRefENS_3MatEEED2Ev.exit7
  call void @_ZdlPv(ptr noundef nonnull %3) #19
  br label %37

37:                                               ; preds = %_ZN2cv4util7variantIJNS0_9monostateENS_7Scalar_IdEENS_6detail9VectorRefENS_3MatEEED2Ev.exit7, %36
  resume { ptr, i32 } %eh.lpad-body
}